; Function Attrs: mustprogress uwtable
define void @_ZN7testing8internal7PrintToEnPSo(i64 noundef %0, i64 noundef %1, ptr noundef %2) local_unnamed_addr #3 {
  %4 = alloca [40 x i8], align 16
  %.sroa.26.0.insert.ext = zext i64 %1 to i128
  %.sroa.26.0.insert.shift = shl nuw i128 %.sroa.26.0.insert.ext, 64
  %5 = icmp slt i128 %.sroa.26.0.insert.shift, 0
  br i1 %5, label %6, label %9

6:                                                ; preds = %3
  %.sroa.05.0.insert.ext = zext i64 %0 to i128
  %.sroa.05.0.insert.insert = or disjoint i128 %.sroa.26.0.insert.shift, %.sroa.05.0.insert.ext
  %7 = tail call noundef nonnull align 8 dereferenceable(8) ptr @_ZSt16__ostream_insertIcSt11char_traitsIcEERSt13basic_ostreamIT_T0_ES6_PKS3_l(ptr noundef nonnull align 8 dereferenceable(8) %2, ptr noundef nonnull @.str.82, i64 noundef 1)
  %8 = sub i128 0, %.sroa.05.0.insert.insert
  %extract.t = trunc i128 %8 to i64
  %extract = lshr i128 %8, 64
  %extract.t8 = trunc nuw i128 %extract to i64
  %.pre11 = and i128 %8, -18446744073709551616
  br label %9

9:                                                ; preds = %6, %3
  %.sroa.2.0.insert.shift.i.pre-phi = phi i128 [ %.pre11, %6 ], [ %.sroa.26.0.insert.shift, %3 ]
  %.0.off0 = phi i64 [ %extract.t, %6 ], [ %0, %3 ]
  %.0.off64 = phi i64 [ %extract.t8, %6 ], [ %1, %3 ]
  %.sroa.0.0.insert.ext.i = zext i64 %.0.off0 to i128
  %.sroa.0.0.insert.insert.i = or disjoint i128 %.sroa.2.0.insert.shift.i.pre-phi, %.sroa.0.0.insert.ext.i
  %10 = icmp eq i128 %.sroa.0.0.insert.insert.i, 0
  br i1 %10, label %11, label %13

11:                                               ; preds = %9
  %12 = tail call noundef nonnull align 8 dereferenceable(8) ptr @_ZSt16__ostream_insertIcSt11char_traitsIcEERSt13basic_ostreamIT_T0_ES6_PKS3_l(ptr noundef nonnull align 8 dereferenceable(8) %2, ptr noundef nonnull @.str.76, i64 noundef 1)
  br label %_ZN7testing8internal7PrintToEoPSo.exit

13:                                               ; preds = %9
  call void @llvm.lifetime.start.p0(i64 40, ptr nonnull %4) #57
  %14 = getelementptr inbounds nuw i8, ptr %4, i64 39
  store i8 0, ptr %14, align 1, !tbaa !27
  %15 = or i64 %.0.off64, %.0.off0
  %.not.i = icmp eq i64 %15, 0
  br i1 %.not.i, label %._crit_edge.i, label %.lr.ph.i

.lr.ph.i:                                         ; preds = %13, %.lr.ph.i
  %.024.i = phi ptr [ %28, %.lr.ph.i ], [ %14, %13 ]
  %.01823.i = phi i64 [ %17, %.lr.ph.i ], [ %.0.off64, %13 ]
  %.01922.i = phi i64 [ %25, %.lr.ph.i ], [ %.0.off0, %13 ]
  %16 = urem i64 %.01823.i, 10
  %17 = udiv i64 %.01823.i, 10
  %18 = mul nuw nsw i64 %16, 6
  %19 = urem i64 %.01922.i, 10
  %20 = add nuw nsw i64 %18, %19
  %21 = udiv i64 %.01922.i, 10
  %22 = mul nuw i64 %16, 1844674407370955161
  %23 = add nuw i64 %22, %21
  %.lhs.trunc.i = trunc nuw nsw i64 %20 to i8
  %24 = udiv i8 %.lhs.trunc.i, 10
  %.zext.i = zext nneg i8 %24 to i64
  %25 = add i64 %23, %.zext.i
  %26 = urem i8 %.lhs.trunc.i, 10
  %27 = or disjoint i8 %26, 48
  %28 = getelementptr inbounds i8, ptr %.024.i, i64 -1
  store i8 %27, ptr %28, align 1, !tbaa !27
  %29 = icmp ugt i64 %.01823.i, 9
  %30 = icmp ne i64 %25, 0
  %31 = select i1 %29, i1 true, i1 %30
  br i1 %31, label %.lr.ph.i, label %._crit_edge.i, !llvm.loop !914

._crit_edge.i:                                    ; preds = %.lr.ph.i, %13
  %.0.lcssa.i = phi ptr [ %14, %13 ], [ %28, %.lr.ph.i ]
  %32 = call noundef i64 @strlen(ptr noundef nonnull dereferenceable(1) %.0.lcssa.i) #57
  %33 = call noundef nonnull align 8 dereferenceable(8) ptr @_ZSt16__ostream_insertIcSt11char_traitsIcEERSt13basic_ostreamIT_T0_ES6_PKS3_l(ptr noundef nonnull align 8 dereferenceable(8) %2, ptr noundef nonnull %.0.lcssa.i, i64 noundef %32)
  call void @llvm.lifetime.end.p0(i64 40, ptr nonnull %4) #57
  br label %_ZN7testing8internal7PrintToEoPSo.exit

_ZN7testing8internal7PrintToEoPSo.exit:           ; preds = %11, %._crit_edge.i
  ret void
}